; Function Attrs: nounwind uwtable
define hidden void @_glfwSetWindowMousePassthroughWayland(ptr noundef readonly captures(none) %0, i32 noundef %1) local_unnamed_addr #0 {
  %.not = icmp eq i32 %1, 0
  br i1 %.not, label %19, label %3

3:                                                ; preds = %2
  %4 = load ptr, ptr getelementptr inbounds nuw (i8, ptr @_glfw, i64 133904), align 8, !tbaa !3
  %5 = load ptr, ptr getelementptr inbounds nuw (i8, ptr @_glfw, i64 137528), align 8, !tbaa !136
  %6 = load ptr, ptr getelementptr inbounds nuw (i8, ptr @_glfw, i64 137520), align 8, !tbaa !93
  %7 = tail call i32 %6(ptr noundef %4) #20
  %8 = tail call ptr (ptr, i32, ptr, i32, i32, ...) %5(ptr noundef %4, i32 noundef 1, ptr noundef nonnull @_glfw_wl_region_interface, i32 noundef %7, i32 noundef 0, ptr noundef null) #20
  %9 = getelementptr inbounds nuw i8, ptr %0, i64 904
  %10 = load ptr, ptr %9, align 8, !tbaa !135
  %11 = load ptr, ptr getelementptr inbounds nuw (i8, ptr @_glfw, i64 137528), align 8, !tbaa !136
  %12 = load ptr, ptr getelementptr inbounds nuw (i8, ptr @_glfw, i64 137520), align 8, !tbaa !93
  %13 = tail call i32 %12(ptr noundef %10) #20
  %14 = tail call ptr (ptr, i32, ptr, i32, i32, ...) %11(ptr noundef %10, i32 noundef 5, ptr noundef null, i32 noundef %13, i32 noundef 0, ptr noundef %8) #20
  %15 = load ptr, ptr getelementptr inbounds nuw (i8, ptr @_glfw, i64 137528), align 8, !tbaa !136
  %16 = load ptr, ptr getelementptr inbounds nuw (i8, ptr @_glfw, i64 137520), align 8, !tbaa !93
  %17 = tail call i32 %16(ptr noundef %8) #20
  %18 = tail call ptr (ptr, i32, ptr, i32, i32, ...) %15(ptr noundef %8, i32 noundef 0, ptr noundef null, i32 noundef %17, i32 noundef 1) #20
  br label %26

19:                                               ; preds = %2
  %20 = getelementptr inbounds nuw i8, ptr %0, i64 904
  %21 = load ptr, ptr %20, align 8, !tbaa !135
  %22 = load ptr, ptr getelementptr inbounds nuw (i8, ptr @_glfw, i64 137528), align 8, !tbaa !136
  %23 = load ptr, ptr getelementptr inbounds nuw (i8, ptr @_glfw, i64 137520), align 8, !tbaa !93
  %24 = tail call i32 %23(ptr noundef %21) #20
  %25 = tail call ptr (ptr, i32, ptr, i32, i32, ...) %22(ptr noundef %21, i32 noundef 5, ptr noundef null, i32 noundef %24, i32 noundef 0, ptr noundef null) #20
  br label %26

26:                                               ; preds = %19, %3
  ret void
}